; Function Attrs: nounwind uwtable
define void @Wlc_BlastDecoder(ptr noundef %0, ptr noundef readonly captures(none) %1, i32 noundef %2, ptr readnone captures(none) %3, ptr noundef captures(none) initializes((4, 8)) %4) local_unnamed_addr #2 {
  %6 = getelementptr inbounds nuw i8, ptr %4, i64 4
  store i32 0, ptr %6, align 4, !tbaa !23
  %.not = icmp eq i32 %2, 31
  br i1 %.not, label %._crit_edge20, label %.preheader.lr.ph

.preheader.lr.ph:                                 ; preds = %5
  %7 = shl nuw i32 1, %2
  %8 = icmp sgt i32 %2, 0
  %.phi.trans.insert.i = getelementptr inbounds nuw i8, ptr %4, i64 8
  %smax24 = tail call i32 @llvm.smax.i32(i32 %7, i32 1)
  br i1 %8, label %.preheader.us.preheader, label %.preheader

.preheader.us.preheader:                          ; preds = %.preheader.lr.ph
  %wide.trip.count = zext nneg i32 %2 to i64
  br label %.preheader.us

.preheader.us:                                    ; preds = %.preheader.us.preheader, %Vec_IntPush.exit.us
  %.01519.us = phi i32 [ %35, %Vec_IntPush.exit.us ], [ 0, %.preheader.us.preheader ]
  %9 = xor i32 %.01519.us, -1
  br label %36

.Vec_IntGrow.exit10_crit_edge.i.us:               ; preds = %._crit_edge.us
  %.pre.i.us = load ptr, ptr %.phi.trans.insert.i, align 8, !tbaa !22
  br label %Vec_IntPush.exit.us

10:                                               ; preds = %._crit_edge.us
  %11 = icmp slt i32 %44, 16
  br i1 %11, label %23, label %12

12:                                               ; preds = %10
  %13 = shl nuw nsw i32 %44, 1
  %14 = load ptr, ptr %.phi.trans.insert.i, align 8, !tbaa !22
  %.not9.i9.i.us = icmp eq ptr %14, null
  %15 = zext nneg i32 %13 to i64
  %16 = shl nuw nsw i64 %15, 2
  br i1 %.not9.i9.i.us, label %19, label %17

17:                                               ; preds = %12
  %18 = tail call ptr @realloc(ptr noundef nonnull %14, i64 noundef %16) #21
  br label %21

19:                                               ; preds = %12
  %20 = tail call noalias ptr @malloc(i64 noundef %16) #22
  br label %21

21:                                               ; preds = %19, %17
  %22 = phi ptr [ %18, %17 ], [ %20, %19 ]
  store ptr %22, ptr %.phi.trans.insert.i, align 8, !tbaa !22
  store i32 %13, ptr %4, align 8, !tbaa !21
  br label %Vec_IntPush.exit.us

23:                                               ; preds = %10
  %24 = load ptr, ptr %.phi.trans.insert.i, align 8, !tbaa !22
  %.not9.i.i.us = icmp eq ptr %24, null
  br i1 %.not9.i.i.us, label %27, label %25

25:                                               ; preds = %23
  %26 = tail call dereferenceable_or_null(64) ptr @realloc(ptr noundef nonnull %24, i64 noundef 64) #21
  br label %Vec_IntGrow.exit.i.us

27:                                               ; preds = %23
  %28 = tail call noalias dereferenceable_or_null(64) ptr @malloc(i64 noundef 64) #22
  br label %Vec_IntGrow.exit.i.us

Vec_IntGrow.exit.i.us:                            ; preds = %27, %25
  %29 = phi ptr [ %26, %25 ], [ %28, %27 ]
  store ptr %29, ptr %.phi.trans.insert.i, align 8, !tbaa !22
  store i32 16, ptr %4, align 8, !tbaa !21
  br label %Vec_IntPush.exit.us

Vec_IntPush.exit.us:                              ; preds = %Vec_IntGrow.exit.i.us, %21, %.Vec_IntGrow.exit10_crit_edge.i.us
  %30 = phi ptr [ %.pre.i.us, %.Vec_IntGrow.exit10_crit_edge.i.us ], [ %22, %21 ], [ %29, %Vec_IntGrow.exit.i.us ]
  %31 = load i32, ptr %6, align 4, !tbaa !23
  %32 = add nsw i32 %31, 1
  store i32 %32, ptr %6, align 4, !tbaa !23
  %33 = sext i32 %31 to i64
  %34 = getelementptr inbounds i32, ptr %30, i64 %33
  store i32 %43, ptr %34, align 4, !tbaa !3
  %35 = add nuw nsw i32 %.01519.us, 1
  %exitcond25.not = icmp eq i32 %35, %smax24
  br i1 %exitcond25.not, label %._crit_edge20, label %.preheader.us, !llvm.loop !178

36:                                               ; preds = %.preheader.us, %36
  %indvars.iv = phi i64 [ 0, %.preheader.us ], [ %indvars.iv.next, %36 ]
  %.018.us = phi i32 [ 1, %.preheader.us ], [ %43, %36 ]
  %37 = getelementptr inbounds nuw i32, ptr %1, i64 %indvars.iv
  %38 = load i32, ptr %37, align 4, !tbaa !3
  %39 = trunc nuw nsw i64 %indvars.iv to i32
  %40 = lshr i32 %9, %39
  %41 = and i32 %40, 1
  %42 = xor i32 %38, %41
  %43 = tail call i32 @Gia_ManHashAnd(ptr noundef %0, i32 noundef %.018.us, i32 noundef %42) #23
  %indvars.iv.next = add nuw nsw i64 %indvars.iv, 1
  %exitcond23.not = icmp eq i64 %indvars.iv.next, %wide.trip.count
  br i1 %exitcond23.not, label %._crit_edge.us, label %36, !llvm.loop !179

._crit_edge.us:                                   ; preds = %36
  %44 = load i32, ptr %6, align 4, !tbaa !23
  %45 = load i32, ptr %4, align 8, !tbaa !21
  %46 = icmp eq i32 %44, %45
  br i1 %46, label %10, label %.Vec_IntGrow.exit10_crit_edge.i.us

.preheader:                                       ; preds = %.preheader.lr.ph, %Vec_IntPush.exit
  %.01519 = phi i32 [ %75, %Vec_IntPush.exit ], [ 0, %.preheader.lr.ph ]
  %47 = load i32, ptr %6, align 4, !tbaa !23
  %48 = load i32, ptr %4, align 8, !tbaa !21
  %49 = icmp eq i32 %47, %48
  br i1 %49, label %50, label %.Vec_IntGrow.exit10_crit_edge.i

.Vec_IntGrow.exit10_crit_edge.i:                  ; preds = %.preheader
  %.pre.i = load ptr, ptr %.phi.trans.insert.i, align 8, !tbaa !22
  br label %Vec_IntPush.exit

50:                                               ; preds = %.preheader
  %51 = icmp slt i32 %47, 16
  br i1 %51, label %52, label %59

52:                                               ; preds = %50
  %53 = load ptr, ptr %.phi.trans.insert.i, align 8, !tbaa !22
  %.not9.i.i = icmp eq ptr %53, null
  br i1 %.not9.i.i, label %56, label %54

54:                                               ; preds = %52
  %55 = tail call dereferenceable_or_null(64) ptr @realloc(ptr noundef nonnull %53, i64 noundef 64) #21
  br label %Vec_IntGrow.exit.i

56:                                               ; preds = %52
  %57 = tail call noalias dereferenceable_or_null(64) ptr @malloc(i64 noundef 64) #22
  br label %Vec_IntGrow.exit.i

Vec_IntGrow.exit.i:                               ; preds = %56, %54
  %58 = phi ptr [ %55, %54 ], [ %57, %56 ]
  store ptr %58, ptr %.phi.trans.insert.i, align 8, !tbaa !22
  store i32 16, ptr %4, align 8, !tbaa !21
  br label %Vec_IntPush.exit

59:                                               ; preds = %50
  %60 = shl nuw nsw i32 %47, 1
  %61 = load ptr, ptr %.phi.trans.insert.i, align 8, !tbaa !22
  %.not9.i9.i = icmp eq ptr %61, null
  %62 = zext nneg i32 %60 to i64
  %63 = shl nuw nsw i64 %62, 2
  br i1 %.not9.i9.i, label %66, label %64

64:                                               ; preds = %59
  %65 = tail call ptr @realloc(ptr noundef nonnull %61, i64 noundef %63) #21
  br label %68

66:                                               ; preds = %59
  %67 = tail call noalias ptr @malloc(i64 noundef %63) #22
  br label %68

68:                                               ; preds = %66, %64
  %69 = phi ptr [ %65, %64 ], [ %67, %66 ]
  store ptr %69, ptr %.phi.trans.insert.i, align 8, !tbaa !22
  store i32 %60, ptr %4, align 8, !tbaa !21
  br label %Vec_IntPush.exit

Vec_IntPush.exit:                                 ; preds = %.Vec_IntGrow.exit10_crit_edge.i, %Vec_IntGrow.exit.i, %68
  %70 = phi ptr [ %.pre.i, %.Vec_IntGrow.exit10_crit_edge.i ], [ %69, %68 ], [ %58, %Vec_IntGrow.exit.i ]
  %71 = load i32, ptr %6, align 4, !tbaa !23
  %72 = add nsw i32 %71, 1
  store i32 %72, ptr %6, align 4, !tbaa !23
  %73 = sext i32 %71 to i64
  %74 = getelementptr inbounds i32, ptr %70, i64 %73
  store i32 1, ptr %74, align 4, !tbaa !3
  %75 = add nuw nsw i32 %.01519, 1
  %exitcond.not = icmp eq i32 %75, %smax24
  br i1 %exitcond.not, label %._crit_edge20, label %.preheader, !llvm.loop !178

._crit_edge20:                                    ; preds = %Vec_IntPush.exit, %Vec_IntPush.exit.us, %5
  ret void
}